; Function Attrs: nounwind uwtable
define internal noundef i32 @_popup_button_release(ptr readnone captures(none) %0, ptr readnone captures(none) %1, ptr readnone captures(none) %2) #0 {
  %4 = load ptr, ptr getelementptr inbounds nuw (i8, ptr @darktable, i64 128), align 8, !tbaa !67
  %5 = getelementptr inbounds nuw i8, ptr %4, i64 84
  %6 = load i32, ptr %5, align 4, !tbaa !124
  %.not = icmp eq i32 %6, 0
  br i1 %.not, label %8, label %7

7:                                                ; preds = %3
  tail call fastcc void @_popup_hide()
  br label %8

8:                                                ; preds = %7, %3
  ret i32 1
}